; ModuleID = '52/2551.c'
source_filename = "52/2551.c"
target datalayout = "e-m:e-p270:32:32-p271:32:32-p272:64:64-i64:64-f80:128-n8:16:32:64-S128"
target triple = "x86_64-pc-linux-gnu"

@.str = private unnamed_addr constant [7 x i8] c"%d %d\0A\00", align 1
@.str.1 = private unnamed_addr constant [4 x i8] c"%d \00", align 1
@.str.2 = private unnamed_addr constant [3 x i8] c"%d\00", align 1

; Function Attrs: noinline nounwind uwtable
define dso_local i32 @main() #0 {
  %1 = alloca i32, align 4
  %2 = alloca i32, align 4
  %3 = alloca i32, align 4
  %4 = alloca i32, align 4
  %5 = alloca [10000 x i32], align 16
  store i32 0, i32* %1, align 4
  %6 = call i32 (i8*, ...) @__isoc99_scanf(i8* getelementptr inbounds ([7 x i8], [7 x i8]* @.str, i64 0, i64 0), i32* %3, i32* %2)
  store i32 0, i32* %4, align 4
  br label %7

7:                                                ; preds = %16, %0
  %8 = load i32, i32* %4, align 4
  %9 = load i32, i32* %3, align 4
  %10 = icmp slt i32 %8, %9
  br i1 %10, label %11, label %19

11:                                               ; preds = %7
  %12 = load i32, i32* %4, align 4
  %13 = sext i32 %12 to i64
  %14 = getelementptr inbounds [10000 x i32], [10000 x i32]* %5, i64 0, i64 %13
  %15 = call i32 (i8*, ...) @__isoc99_scanf(i8* getelementptr inbounds ([4 x i8], [4 x i8]* @.str.1, i64 0, i64 0), i32* %14)
  br label %16

16:                                               ; preds = %11
  %17 = load i32, i32* %4, align 4
  %18 = add nsw i32 %17, 1
  store i32 %18, i32* %4, align 4
  br label %7

19:                                               ; preds = %7
  %20 = load i32, i32* %3, align 4
  store i32 %20, i32* %4, align 4
  br label %21

21:                                               ; preds = %39, %19
  %22 = load i32, i32* %4, align 4
  %23 = load i32, i32* %3, align 4
  %24 = load i32, i32* %3, align 4
  %25 = add nsw i32 %23, %24
  %26 = load i32, i32* %2, align 4
  %27 = sub nsw i32 %25, %26
  %28 = icmp slt i32 %22, %27
  br i1 %28, label %29, label %42

29:                                               ; preds = %21
  %30 = load i32, i32* %4, align 4
  %31 = load i32, i32* %3, align 4
  %32 = sub nsw i32 %30, %31
  %33 = sext i32 %32 to i64
  %34 = getelementptr inbounds [10000 x i32], [10000 x i32]* %5, i64 0, i64 %33
  %35 = load i32, i32* %34, align 4
  %36 = load i32, i32* %4, align 4
  %37 = sext i32 %36 to i64
  %38 = getelementptr inbounds [10000 x i32], [10000 x i32]* %5, i64 0, i64 %37
  store i32 %35, i32* %38, align 4
  br label %39

39:                                               ; preds = %29
  %40 = load i32, i32* %4, align 4
  %41 = add nsw i32 %40, 1
  store i32 %41, i32* %4, align 4
  br label %21

42:                                               ; preds = %21
  %43 = load i32, i32* %3, align 4
  %44 = load i32, i32* %2, align 4
  %45 = sub nsw i32 %43, %44
  store i32 %45, i32* %4, align 4
  br label %46

46:                                               ; preds = %61, %42
  %47 = load i32, i32* %4, align 4
  %48 = load i32, i32* %3, align 4
  %49 = load i32, i32* %3, align 4
  %50 = add nsw i32 %48, %49
  %51 = load i32, i32* %2, align 4
  %52 = sub nsw i32 %50, %51
  %53 = sub nsw i32 %52, 1
  %54 = icmp slt i32 %47, %53
  br i1 %54, label %55, label %64

55:                                               ; preds = %46
  %56 = load i32, i32* %4, align 4
  %57 = sext i32 %56 to i64
  %58 = getelementptr inbounds [10000 x i32], [10000 x i32]* %5, i64 0, i64 %57
  %59 = load i32, i32* %58, align 4
  %60 = call i32 (i8*, ...) @printf(i8* getelementptr inbounds ([4 x i8], [4 x i8]* @.str.1, i64 0, i64 0), i32 %59)
  br label %61

61:                                               ; preds = %55
  %62 = load i32, i32* %4, align 4
  %63 = add nsw i32 %62, 1
  store i32 %63, i32* %4, align 4
  br label %46

64:                                               ; preds = %46
  %65 = load i32, i32* %3, align 4
  %66 = load i32, i32* %3, align 4
  %67 = add nsw i32 %65, %66
  %68 = load i32, i32* %2, align 4
  %69 = sub nsw i32 %67, %68
  %70 = sub nsw i32 %69, 1
  %71 = sext i32 %70 to i64
  %72 = getelementptr inbounds [10000 x i32], [10000 x i32]* %5, i64 0, i64 %71
  %73 = load i32, i32* %72, align 4
  %74 = call i32 (i8*, ...) @printf(i8* getelementptr inbounds ([3 x i8], [3 x i8]* @.str.2, i64 0, i64 0), i32 %73)
  ret i32 0
}

declare dso_local i32 @__isoc99_scanf(i8*, ...) #1

declare dso_local i32 @printf(i8*, ...) #1


!llvm.module.flags = !{!0}
!llvm.ident = !{!1}

!0 = !{i32 1, !"wchar_size", i32 4}
!1 = !{!"clang version 10.0.0-4ubuntu1 "}
